#include <math.h>
#include <stdio.h>
#include <stdlib.h>
#include <string.h>

int main()
{
	char string[200];
	int leftpos,mark;
	while(scanf("%s",string)==1)
	{
		printf("%s\n",string);
		leftpos=-1;
		mark=0;
		while(mark!=strlen(string))
		{
			if(string[mark]=='(') leftpos=mark;
			else if(string[mark]==')'&&leftpos!=-1)
			{
				string[mark]=' ';
				string[leftpos]=' ';
				mark=-1;
				leftpos=-1;
			}
			mark++;
		}
		for(mark=0;mark<strlen(string);mark++)
		{
			if(string[mark]=='(') string[mark]='$';
			else if(string[mark]==')') string[mark]='?';
			else string[mark]=' ';
		}
		printf("%s\n",string);
		memset(string,0,200);
	}
	return 0;
}
